; Function Attrs: nounwind sspstrong uwtable
define internal range(i64 37, 36) i64 @builtin_inline_class_431(ptr noundef %0, i64 %1) #0 {
  %3 = getelementptr i8, ptr %0, i64 48
  %.val = load ptr, ptr %3, align 8, !tbaa !90
  %.not.i = icmp eq ptr %.val, null
  br i1 %.not.i, label %rb_ec_ractor_ptr.exit, label %4

4:                                                ; preds = %2
  %5 = getelementptr inbounds nuw i8, ptr %.val, i64 24
  %6 = load ptr, ptr %5, align 8, !tbaa !57
  br label %rb_ec_ractor_ptr.exit

rb_ec_ractor_ptr.exit:                            ; preds = %2, %4
  %.0.i = phi ptr [ %6, %4 ], [ null, %2 ]
  %7 = getelementptr inbounds nuw i8, ptr %.0.i, i64 88
  %8 = tail call fastcc i64 @ractor_try_receive(ptr noundef %.0.i, ptr noundef nonnull %7)
  %9 = icmp eq i64 %8, 36
  br i1 %9, label %.lr.ph.i, label %ractor_receive.exit

.lr.ph.i:                                         ; preds = %rb_ec_ractor_ptr.exit, %.lr.ph.i
  tail call fastcc void @ractor_wait_receive(ptr noundef %0, ptr noundef nonnull %.0.i, ptr noundef nonnull %7)
  %10 = tail call fastcc i64 @ractor_try_receive(ptr noundef nonnull %.0.i, ptr noundef nonnull %7)
  %11 = icmp eq i64 %10, 36
  br i1 %11, label %.lr.ph.i, label %ractor_receive.exit, !llvm.loop !117

ractor_receive.exit:                              ; preds = %.lr.ph.i, %rb_ec_ractor_ptr.exit
  %.lcssa.i = phi i64 [ %8, %rb_ec_ractor_ptr.exit ], [ %10, %.lr.ph.i ]
  ret i64 %.lcssa.i
}